target datalayout = "e-m:e-p270:32:32-p271:32:32-p272:64:64-i64:64-i128:128-f80:128-n8:16:32:64-S128"
target triple = "x86_64-pc-linux-gnu"

%struct.resourcemodulestate = type { ptr }

@PyExc_OSError = external global ptr, align 8
@.str.21 = private unnamed_addr constant [6 x i8] c"error\00", align 1
@.str.22 = private unnamed_addr constant [11 x i8] c"RLIMIT_CPU\00", align 1
@.str.23 = private unnamed_addr constant [13 x i8] c"RLIMIT_FSIZE\00", align 1
@.str.24 = private unnamed_addr constant [12 x i8] c"RLIMIT_DATA\00", align 1
@.str.25 = private unnamed_addr constant [13 x i8] c"RLIMIT_STACK\00", align 1
@.str.26 = private unnamed_addr constant [12 x i8] c"RLIMIT_CORE\00", align 1
@.str.27 = private unnamed_addr constant [14 x i8] c"RLIMIT_NOFILE\00", align 1
@.str.28 = private unnamed_addr constant [13 x i8] c"RLIMIT_OFILE\00", align 1
@.str.29 = private unnamed_addr constant [10 x i8] c"RLIMIT_AS\00", align 1
@.str.30 = private unnamed_addr constant [11 x i8] c"RLIMIT_RSS\00", align 1
@.str.31 = private unnamed_addr constant [13 x i8] c"RLIMIT_NPROC\00", align 1
@.str.32 = private unnamed_addr constant [15 x i8] c"RLIMIT_MEMLOCK\00", align 1
@.str.33 = private unnamed_addr constant [16 x i8] c"RLIMIT_MSGQUEUE\00", align 1
@.str.34 = private unnamed_addr constant [12 x i8] c"RLIMIT_NICE\00", align 1
@.str.35 = private unnamed_addr constant [14 x i8] c"RLIMIT_RTPRIO\00", align 1
@.str.36 = private unnamed_addr constant [14 x i8] c"RLIMIT_RTTIME\00", align 1
@.str.37 = private unnamed_addr constant [18 x i8] c"RLIMIT_SIGPENDING\00", align 1
@.str.38 = private unnamed_addr constant [12 x i8] c"RUSAGE_SELF\00", align 1
@.str.39 = private unnamed_addr constant [16 x i8] c"RUSAGE_CHILDREN\00", align 1
@.str.40 = private unnamed_addr constant [14 x i8] c"RUSAGE_THREAD\00", align 1
@.str.41 = private unnamed_addr constant [14 x i8] c"RLIM_INFINITY\00", align 1
@struct_rusage_desc = internal global { ptr, ptr, ptr, i32, [4 x i8] } { ptr @.str.42, ptr @struct_rusage__doc__, ptr @struct_rusage_fields, i32 16, [4 x i8] zeroinitializer }, align 8

; Function Attrs: inlinehint nounwind uwtable
define internal ptr @get_resource_state(ptr noundef %0) #5 {
  %2 = alloca ptr, align 8
  %3 = alloca ptr, align 8
  store ptr %0, ptr %2, align 8, !tbaa !3
  call void @llvm.lifetime.start.p0(i64 8, ptr %3) #7
  %4 = load ptr, ptr %2, align 8, !tbaa !3
  %5 = call ptr @PyModule_GetState(ptr noundef %4)
  store ptr %5, ptr %3, align 8, !tbaa !8
  %6 = load ptr, ptr %3, align 8, !tbaa !8
  call void @llvm.lifetime.end.p0(i64 8, ptr %3) #7
  ret ptr %6
}

; Function Attrs: nounwind uwtable
define internal i32 @resource_exec(ptr noundef %0) #0 {
  %2 = alloca i32, align 4
  %3 = alloca ptr, align 8
  %4 = alloca ptr, align 8
  %5 = alloca i32, align 4
  %6 = alloca ptr, align 8
  store ptr %0, ptr %3, align 8, !tbaa !3
  call void @llvm.lifetime.start.p0(i64 8, ptr %4) #7
  %7 = load ptr, ptr %3, align 8, !tbaa !3
  %8 = call ptr @get_resource_state(ptr noundef %7)
  store ptr %8, ptr %4, align 8, !tbaa !8
  %9 = load ptr, ptr %3, align 8, !tbaa !3
  %10 = load ptr, ptr @PyExc_OSError, align 8, !tbaa !3
  %11 = call i32 @PyModule_AddObjectRef(ptr noundef %9, ptr noundef @.str.21, ptr noundef %10)
  %12 = icmp slt i32 %11, 0
  br i1 %12, label %13, label %14

13:                                               ; preds = %1
  store i32 -1, ptr %2, align 4
  store i32 1, ptr %5, align 4
  br label %192

14:                                               ; preds = %1
  %15 = call ptr @PyStructSequence_NewType(ptr noundef @struct_rusage_desc)
  %16 = load ptr, ptr %4, align 8, !tbaa !8
  %17 = getelementptr inbounds nuw %struct.resourcemodulestate, ptr %16, i32 0, i32 0
  store ptr %15, ptr %17, align 8, !tbaa !9
  %18 = load ptr, ptr %4, align 8, !tbaa !8
  %19 = getelementptr inbounds nuw %struct.resourcemodulestate, ptr %18, i32 0, i32 0
  %20 = load ptr, ptr %19, align 8, !tbaa !9
  %21 = icmp eq ptr %20, null
  br i1 %21, label %22, label %23

22:                                               ; preds = %14
  store i32 -1, ptr %2, align 4
  store i32 1, ptr %5, align 4
  br label %192

23:                                               ; preds = %14
  %24 = load ptr, ptr %3, align 8, !tbaa !3
  %25 = load ptr, ptr %4, align 8, !tbaa !8
  %26 = getelementptr inbounds nuw %struct.resourcemodulestate, ptr %25, i32 0, i32 0
  %27 = load ptr, ptr %26, align 8, !tbaa !9
  %28 = call i32 @PyModule_AddType(ptr noundef %24, ptr noundef %27)
  %29 = icmp slt i32 %28, 0
  br i1 %29, label %30, label %31

30:                                               ; preds = %23
  store i32 -1, ptr %2, align 4
  store i32 1, ptr %5, align 4
  br label %192

31:                                               ; preds = %23
  br label %32

32:                                               ; preds = %31
  %33 = load ptr, ptr %3, align 8, !tbaa !3
  %34 = call i32 @PyModule_AddIntConstant(ptr noundef %33, ptr noundef @.str.22, i64 noundef 0)
  %35 = icmp slt i32 %34, 0
  br i1 %35, label %36, label %37

36:                                               ; preds = %32
  store i32 -1, ptr %2, align 4
  store i32 1, ptr %5, align 4
  br label %192

37:                                               ; preds = %32
  br label %38

38:                                               ; preds = %37
  br label %39

39:                                               ; preds = %38
  br label %40

40:                                               ; preds = %39
  %41 = load ptr, ptr %3, align 8, !tbaa !3
  %42 = call i32 @PyModule_AddIntConstant(ptr noundef %41, ptr noundef @.str.23, i64 noundef 1)
  %43 = icmp slt i32 %42, 0
  br i1 %43, label %44, label %45

44:                                               ; preds = %40
  store i32 -1, ptr %2, align 4
  store i32 1, ptr %5, align 4
  br label %192

45:                                               ; preds = %40
  br label %46

46:                                               ; preds = %45
  br label %47

47:                                               ; preds = %46
  br label %48

48:                                               ; preds = %47
  %49 = load ptr, ptr %3, align 8, !tbaa !3
  %50 = call i32 @PyModule_AddIntConstant(ptr noundef %49, ptr noundef @.str.24, i64 noundef 2)
  %51 = icmp slt i32 %50, 0
  br i1 %51, label %52, label %53

52:                                               ; preds = %48
  store i32 -1, ptr %2, align 4
  store i32 1, ptr %5, align 4
  br label %192

53:                                               ; preds = %48
  br label %54

54:                                               ; preds = %53
  br label %55

55:                                               ; preds = %54
  br label %56

56:                                               ; preds = %55
  %57 = load ptr, ptr %3, align 8, !tbaa !3
  %58 = call i32 @PyModule_AddIntConstant(ptr noundef %57, ptr noundef @.str.25, i64 noundef 3)
  %59 = icmp slt i32 %58, 0
  br i1 %59, label %60, label %61

60:                                               ; preds = %56
  store i32 -1, ptr %2, align 4
  store i32 1, ptr %5, align 4
  br label %192

61:                                               ; preds = %56
  br label %62

62:                                               ; preds = %61
  br label %63

63:                                               ; preds = %62
  br label %64

64:                                               ; preds = %63
  %65 = load ptr, ptr %3, align 8, !tbaa !3
  %66 = call i32 @PyModule_AddIntConstant(ptr noundef %65, ptr noundef @.str.26, i64 noundef 4)
  %67 = icmp slt i32 %66, 0
  br i1 %67, label %68, label %69

68:                                               ; preds = %64
  store i32 -1, ptr %2, align 4
  store i32 1, ptr %5, align 4
  br label %192

69:                                               ; preds = %64
  br label %70

70:                                               ; preds = %69
  br label %71

71:                                               ; preds = %70
  br label %72

72:                                               ; preds = %71
  %73 = load ptr, ptr %3, align 8, !tbaa !3
  %74 = call i32 @PyModule_AddIntConstant(ptr noundef %73, ptr noundef @.str.27, i64 noundef 7)
  %75 = icmp slt i32 %74, 0
  br i1 %75, label %76, label %77

76:                                               ; preds = %72
  store i32 -1, ptr %2, align 4
  store i32 1, ptr %5, align 4
  br label %192

77:                                               ; preds = %72
  br label %78

78:                                               ; preds = %77
  br label %79

79:                                               ; preds = %78
  br label %80

80:                                               ; preds = %79
  %81 = load ptr, ptr %3, align 8, !tbaa !3
  %82 = call i32 @PyModule_AddIntConstant(ptr noundef %81, ptr noundef @.str.28, i64 noundef 7)
  %83 = icmp slt i32 %82, 0
  br i1 %83, label %84, label %85

84:                                               ; preds = %80
  store i32 -1, ptr %2, align 4
  store i32 1, ptr %5, align 4
  br label %192

85:                                               ; preds = %80
  br label %86

86:                                               ; preds = %85
  br label %87

87:                                               ; preds = %86
  br label %88

88:                                               ; preds = %87
  %89 = load ptr, ptr %3, align 8, !tbaa !3
  %90 = call i32 @PyModule_AddIntConstant(ptr noundef %89, ptr noundef @.str.29, i64 noundef 9)
  %91 = icmp slt i32 %90, 0
  br i1 %91, label %92, label %93

92:                                               ; preds = %88
  store i32 -1, ptr %2, align 4
  store i32 1, ptr %5, align 4
  br label %192

93:                                               ; preds = %88
  br label %94

94:                                               ; preds = %93
  br label %95

95:                                               ; preds = %94
  br label %96

96:                                               ; preds = %95
  %97 = load ptr, ptr %3, align 8, !tbaa !3
  %98 = call i32 @PyModule_AddIntConstant(ptr noundef %97, ptr noundef @.str.30, i64 noundef 5)
  %99 = icmp slt i32 %98, 0
  br i1 %99, label %100, label %101

100:                                              ; preds = %96
  store i32 -1, ptr %2, align 4
  store i32 1, ptr %5, align 4
  br label %192

101:                                              ; preds = %96
  br label %102

102:                                              ; preds = %101
  br label %103

103:                                              ; preds = %102
  br label %104

104:                                              ; preds = %103
  %105 = load ptr, ptr %3, align 8, !tbaa !3
  %106 = call i32 @PyModule_AddIntConstant(ptr noundef %105, ptr noundef @.str.31, i64 noundef 6)
  %107 = icmp slt i32 %106, 0
  br i1 %107, label %108, label %109

108:                                              ; preds = %104
  store i32 -1, ptr %2, align 4
  store i32 1, ptr %5, align 4
  br label %192

109:                                              ; preds = %104
  br label %110

110:                                              ; preds = %109
  br label %111

111:                                              ; preds = %110
  br label %112

112:                                              ; preds = %111
  %113 = load ptr, ptr %3, align 8, !tbaa !3
  %114 = call i32 @PyModule_AddIntConstant(ptr noundef %113, ptr noundef @.str.32, i64 noundef 8)
  %115 = icmp slt i32 %114, 0
  br i1 %115, label %116, label %117

116:                                              ; preds = %112
  store i32 -1, ptr %2, align 4
  store i32 1, ptr %5, align 4
  br label %192

117:                                              ; preds = %112
  br label %118

118:                                              ; preds = %117
  br label %119

119:                                              ; preds = %118
  br label %120

120:                                              ; preds = %119
  %121 = load ptr, ptr %3, align 8, !tbaa !3
  %122 = call i32 @PyModule_AddIntConstant(ptr noundef %121, ptr noundef @.str.33, i64 noundef 12)
  %123 = icmp slt i32 %122, 0
  br i1 %123, label %124, label %125

124:                                              ; preds = %120
  store i32 -1, ptr %2, align 4
  store i32 1, ptr %5, align 4
  br label %192

125:                                              ; preds = %120
  br label %126

126:                                              ; preds = %125
  br label %127

127:                                              ; preds = %126
  br label %128

128:                                              ; preds = %127
  %129 = load ptr, ptr %3, align 8, !tbaa !3
  %130 = call i32 @PyModule_AddIntConstant(ptr noundef %129, ptr noundef @.str.34, i64 noundef 13)
  %131 = icmp slt i32 %130, 0
  br i1 %131, label %132, label %133

132:                                              ; preds = %128
  store i32 -1, ptr %2, align 4
  store i32 1, ptr %5, align 4
  br label %192

133:                                              ; preds = %128
  br label %134

134:                                              ; preds = %133
  br label %135

135:                                              ; preds = %134
  br label %136

136:                                              ; preds = %135
  %137 = load ptr, ptr %3, align 8, !tbaa !3
  %138 = call i32 @PyModule_AddIntConstant(ptr noundef %137, ptr noundef @.str.35, i64 noundef 14)
  %139 = icmp slt i32 %138, 0
  br i1 %139, label %140, label %141

140:                                              ; preds = %136
  store i32 -1, ptr %2, align 4
  store i32 1, ptr %5, align 4
  br label %192

141:                                              ; preds = %136
  br label %142

142:                                              ; preds = %141
  br label %143

143:                                              ; preds = %142
  br label %144

144:                                              ; preds = %143
  %145 = load ptr, ptr %3, align 8, !tbaa !3
  %146 = call i32 @PyModule_AddIntConstant(ptr noundef %145, ptr noundef @.str.36, i64 noundef 15)
  %147 = icmp slt i32 %146, 0
  br i1 %147, label %148, label %149

148:                                              ; preds = %144
  store i32 -1, ptr %2, align 4
  store i32 1, ptr %5, align 4
  br label %192

149:                                              ; preds = %144
  br label %150

150:                                              ; preds = %149
  br label %151

151:                                              ; preds = %150
  br label %152

152:                                              ; preds = %151
  %153 = load ptr, ptr %3, align 8, !tbaa !3
  %154 = call i32 @PyModule_AddIntConstant(ptr noundef %153, ptr noundef @.str.37, i64 noundef 11)
  %155 = icmp slt i32 %154, 0
  br i1 %155, label %156, label %157

156:                                              ; preds = %152
  store i32 -1, ptr %2, align 4
  store i32 1, ptr %5, align 4
  br label %192

157:                                              ; preds = %152
  br label %158

158:                                              ; preds = %157
  br label %159

159:                                              ; preds = %158
  br label %160

160:                                              ; preds = %159
  %161 = load ptr, ptr %3, align 8, !tbaa !3
  %162 = call i32 @PyModule_AddIntConstant(ptr noundef %161, ptr noundef @.str.38, i64 noundef 0)
  %163 = icmp slt i32 %162, 0
  br i1 %163, label %164, label %165

164:                                              ; preds = %160
  store i32 -1, ptr %2, align 4
  store i32 1, ptr %5, align 4
  br label %192

165:                                              ; preds = %160
  br label %166

166:                                              ; preds = %165
  br label %167

167:                                              ; preds = %166
  br label %168

168:                                              ; preds = %167
  %169 = load ptr, ptr %3, align 8, !tbaa !3
  %170 = call i32 @PyModule_AddIntConstant(ptr noundef %169, ptr noundef @.str.39, i64 noundef -1)
  %171 = icmp slt i32 %170, 0
  br i1 %171, label %172, label %173

172:                                              ; preds = %168
  store i32 -1, ptr %2, align 4
  store i32 1, ptr %5, align 4
  br label %192

173:                                              ; preds = %168
  br label %174

174:                                              ; preds = %173
  br label %175

175:                                              ; preds = %174
  br label %176

176:                                              ; preds = %175
  %177 = load ptr, ptr %3, align 8, !tbaa !3
  %178 = call i32 @PyModule_AddIntConstant(ptr noundef %177, ptr noundef @.str.40, i64 noundef 1)
  %179 = icmp slt i32 %178, 0
  br i1 %179, label %180, label %181

180:                                              ; preds = %176
  store i32 -1, ptr %2, align 4
  store i32 1, ptr %5, align 4
  br label %192

181:                                              ; preds = %176
  br label %182

182:                                              ; preds = %181
  br label %183

183:                                              ; preds = %182
  call void @llvm.lifetime.start.p0(i64 8, ptr %6) #7
  %184 = call ptr @PyLong_FromLong(i64 noundef -1)
  store ptr %184, ptr %6, align 8, !tbaa !3
  %185 = load ptr, ptr %3, align 8, !tbaa !3
  %186 = load ptr, ptr %6, align 8, !tbaa !3
  %187 = call i32 @PyModule_Add(ptr noundef %185, ptr noundef @.str.41, ptr noundef %186)
  %188 = icmp slt i32 %187, 0
  br i1 %188, label %189, label %190

189:                                              ; preds = %183
  store i32 -1, ptr %2, align 4
  store i32 1, ptr %5, align 4
  br label %191

190:                                              ; preds = %183
  store i32 0, ptr %2, align 4
  store i32 1, ptr %5, align 4
  br label %191

191:                                              ; preds = %190, %189
  call void @llvm.lifetime.end.p0(i64 8, ptr %6) #7
  br label %192

192:                                              ; preds = %191, %180, %172, %164, %156, %148, %140, %132, %124, %116, %108, %100, %92, %84, %76, %68, %60, %52, %44, %36, %30, %22, %13
  call void @llvm.lifetime.end.p0(i64 8, ptr %4) #7
  %193 = load i32, ptr %2, align 4
  ret i32 %193
}