; Function Attrs: nounwind uwtable
define internal range(i32 -1, 1) i32 @resource_exec(ptr noundef %0) #0 {
  %2 = tail call ptr @PyModule_GetState(ptr noundef %0) #6
  %3 = load ptr, ptr @PyExc_OSError, align 8, !tbaa !10
  %4 = tail call i32 @PyModule_AddObjectRef(ptr noundef %0, ptr noundef nonnull @.str.21, ptr noundef %3) #6
  %5 = icmp slt i32 %4, 0
  br i1 %5, label %72, label %6

6:                                                ; preds = %1
  %7 = tail call ptr @PyStructSequence_NewType(ptr noundef nonnull @struct_rusage_desc) #6
  store ptr %7, ptr %2, align 8, !tbaa !3
  %8 = icmp eq ptr %7, null
  br i1 %8, label %72, label %9

9:                                                ; preds = %6
  %10 = tail call i32 @PyModule_AddType(ptr noundef %0, ptr noundef nonnull %7) #6
  %11 = icmp slt i32 %10, 0
  br i1 %11, label %72, label %12

12:                                               ; preds = %9
  %13 = tail call i32 @PyModule_AddIntConstant(ptr noundef %0, ptr noundef nonnull @.str.22, i64 noundef 0) #6
  %14 = icmp slt i32 %13, 0
  br i1 %14, label %72, label %15

15:                                               ; preds = %12
  %16 = tail call i32 @PyModule_AddIntConstant(ptr noundef %0, ptr noundef nonnull @.str.23, i64 noundef 1) #6
  %17 = icmp slt i32 %16, 0
  br i1 %17, label %72, label %18

18:                                               ; preds = %15
  %19 = tail call i32 @PyModule_AddIntConstant(ptr noundef %0, ptr noundef nonnull @.str.24, i64 noundef 2) #6
  %20 = icmp slt i32 %19, 0
  br i1 %20, label %72, label %21

21:                                               ; preds = %18
  %22 = tail call i32 @PyModule_AddIntConstant(ptr noundef %0, ptr noundef nonnull @.str.25, i64 noundef 3) #6
  %23 = icmp slt i32 %22, 0
  br i1 %23, label %72, label %24

24:                                               ; preds = %21
  %25 = tail call i32 @PyModule_AddIntConstant(ptr noundef %0, ptr noundef nonnull @.str.26, i64 noundef 4) #6
  %26 = icmp slt i32 %25, 0
  br i1 %26, label %72, label %27

27:                                               ; preds = %24
  %28 = tail call i32 @PyModule_AddIntConstant(ptr noundef %0, ptr noundef nonnull @.str.27, i64 noundef 7) #6
  %29 = icmp slt i32 %28, 0
  br i1 %29, label %72, label %30

30:                                               ; preds = %27
  %31 = tail call i32 @PyModule_AddIntConstant(ptr noundef %0, ptr noundef nonnull @.str.28, i64 noundef 7) #6
  %32 = icmp slt i32 %31, 0
  br i1 %32, label %72, label %33

33:                                               ; preds = %30
  %34 = tail call i32 @PyModule_AddIntConstant(ptr noundef %0, ptr noundef nonnull @.str.29, i64 noundef 9) #6
  %35 = icmp slt i32 %34, 0
  br i1 %35, label %72, label %36

36:                                               ; preds = %33
  %37 = tail call i32 @PyModule_AddIntConstant(ptr noundef %0, ptr noundef nonnull @.str.30, i64 noundef 5) #6
  %38 = icmp slt i32 %37, 0
  br i1 %38, label %72, label %39

39:                                               ; preds = %36
  %40 = tail call i32 @PyModule_AddIntConstant(ptr noundef %0, ptr noundef nonnull @.str.31, i64 noundef 6) #6
  %41 = icmp slt i32 %40, 0
  br i1 %41, label %72, label %42

42:                                               ; preds = %39
  %43 = tail call i32 @PyModule_AddIntConstant(ptr noundef %0, ptr noundef nonnull @.str.32, i64 noundef 8) #6
  %44 = icmp slt i32 %43, 0
  br i1 %44, label %72, label %45

45:                                               ; preds = %42
  %46 = tail call i32 @PyModule_AddIntConstant(ptr noundef %0, ptr noundef nonnull @.str.33, i64 noundef 12) #6
  %47 = icmp slt i32 %46, 0
  br i1 %47, label %72, label %48

48:                                               ; preds = %45
  %49 = tail call i32 @PyModule_AddIntConstant(ptr noundef %0, ptr noundef nonnull @.str.34, i64 noundef 13) #6
  %50 = icmp slt i32 %49, 0
  br i1 %50, label %72, label %51

51:                                               ; preds = %48
  %52 = tail call i32 @PyModule_AddIntConstant(ptr noundef %0, ptr noundef nonnull @.str.35, i64 noundef 14) #6
  %53 = icmp slt i32 %52, 0
  br i1 %53, label %72, label %54

54:                                               ; preds = %51
  %55 = tail call i32 @PyModule_AddIntConstant(ptr noundef %0, ptr noundef nonnull @.str.36, i64 noundef 15) #6
  %56 = icmp slt i32 %55, 0
  br i1 %56, label %72, label %57

57:                                               ; preds = %54
  %58 = tail call i32 @PyModule_AddIntConstant(ptr noundef %0, ptr noundef nonnull @.str.37, i64 noundef 11) #6
  %59 = icmp slt i32 %58, 0
  br i1 %59, label %72, label %60

60:                                               ; preds = %57
  %61 = tail call i32 @PyModule_AddIntConstant(ptr noundef %0, ptr noundef nonnull @.str.38, i64 noundef 0) #6
  %62 = icmp slt i32 %61, 0
  br i1 %62, label %72, label %63

63:                                               ; preds = %60
  %64 = tail call i32 @PyModule_AddIntConstant(ptr noundef %0, ptr noundef nonnull @.str.39, i64 noundef -1) #6
  %65 = icmp slt i32 %64, 0
  br i1 %65, label %72, label %66

66:                                               ; preds = %63
  %67 = tail call i32 @PyModule_AddIntConstant(ptr noundef %0, ptr noundef nonnull @.str.40, i64 noundef 1) #6
  %68 = icmp slt i32 %67, 0
  br i1 %68, label %72, label %69

69:                                               ; preds = %66
  %70 = tail call ptr @PyLong_FromLong(i64 noundef -1) #6
  %71 = tail call i32 @PyModule_Add(ptr noundef %0, ptr noundef nonnull @.str.41, ptr noundef %70) #6
  %.lobit = ashr i32 %71, 31
  br label %72

72:                                               ; preds = %66, %63, %60, %57, %54, %51, %48, %45, %42, %39, %36, %33, %30, %27, %24, %21, %18, %15, %12, %9, %6, %1, %69
  %.0 = phi i32 [ %.lobit, %69 ], [ -1, %1 ], [ -1, %6 ], [ -1, %9 ], [ -1, %12 ], [ -1, %15 ], [ -1, %18 ], [ -1, %21 ], [ -1, %24 ], [ -1, %27 ], [ -1, %30 ], [ -1, %33 ], [ -1, %36 ], [ -1, %39 ], [ -1, %42 ], [ -1, %45 ], [ -1, %48 ], [ -1, %51 ], [ -1, %54 ], [ -1, %57 ], [ -1, %60 ], [ -1, %63 ], [ -1, %66 ]
  ret i32 %.0
}